target datalayout = "e-m:e-p270:32:32-p271:32:32-p272:64:64-i64:64-i128:128-f80:128-n8:16:32:64-S128"
target triple = "x86_64-pc-linux-gnu"

%"class.gmx::FlagsTemplate" = type { i64 }
%"class.gmx::AbstractOption" = type { ptr, i32, i32, ptr, ptr, %"class.gmx::FlagsTemplate", ptr }

@_ZTVN3gmx19SelectionFileOptionE = unnamed_addr constant { [5 x ptr] } { [5 x ptr] [ptr null, ptr @_ZTIN3gmx19SelectionFileOptionE, ptr @_ZN3gmx14AbstractOptionD2Ev, ptr @_ZN3gmx19SelectionFileOptionD0Ev, ptr @_ZNK3gmx19SelectionFileOption13createStorageERKNS_22OptionManagerContainerE] }, align 8
@.str.34 = private unnamed_addr constant [30 x i8] c"Provide selections from files\00", align 1
@_ZTVN3gmx14AbstractOptionE = linkonce_odr unnamed_addr constant { [5 x ptr] } { [5 x ptr] [ptr null, ptr @_ZTIN3gmx14AbstractOptionE, ptr @_ZN3gmx14AbstractOptionD2Ev, ptr @_ZN3gmx14AbstractOptionD0Ev, ptr @__cxa_pure_virtual] }, comdat, align 8

; Function Attrs: mustprogress nounwind uwtable
define linkonce_odr void @_ZN3gmx13FlagsTemplateINS_10OptionFlagEEC2Ev(ptr noundef nonnull align 8 dereferenceable(8) %0) unnamed_addr #2 comdat align 2 {
  %2 = alloca ptr, align 8
  store ptr %0, ptr %2, align 8, !tbaa !82
  %3 = load ptr, ptr %2, align 8
  %4 = getelementptr inbounds nuw %"class.gmx::FlagsTemplate", ptr %3, i32 0, i32 0
  store i64 0, ptr %4, align 8, !tbaa !84
  ret void
}

; Function Attrs: mustprogress nounwind uwtable
define linkonce_odr void @_ZN3gmx14AbstractOptionD2Ev(ptr noundef nonnull align 8 dereferenceable(48) %0) unnamed_addr #2 comdat align 2 {
  %2 = alloca ptr, align 8
  store ptr %0, ptr %2, align 8, !tbaa !70
  ret void
}

; Function Attrs: mustprogress nounwind uwtable
define linkonce_odr void @_ZN3gmx14AbstractOption14setDescriptionEPKc(ptr noundef nonnull align 8 dereferenceable(48) %0, ptr noundef %1) #2 comdat align 2 {
  %3 = alloca ptr, align 8
  %4 = alloca ptr, align 8
  store ptr %0, ptr %3, align 8, !tbaa !70
  store ptr %1, ptr %4, align 8, !tbaa !100
  %5 = load ptr, ptr %3, align 8
  %6 = load ptr, ptr %4, align 8, !tbaa !100
  %7 = getelementptr inbounds nuw %"class.gmx::AbstractOption", ptr %5, i32 0, i32 4
  store ptr %6, ptr %7, align 8, !tbaa !409
  ret void
}

; Function Attrs: mustprogress uwtable
define linkonce_odr void @_ZN3gmx14AbstractOptionC2EPKc(ptr noundef nonnull align 8 dereferenceable(48) %0, ptr noundef %1) unnamed_addr #1 comdat align 2 {
  %3 = alloca ptr, align 8
  %4 = alloca ptr, align 8
  store ptr %0, ptr %3, align 8, !tbaa !70
  store ptr %1, ptr %4, align 8, !tbaa !100
  %5 = load ptr, ptr %3, align 8
  store ptr getelementptr inbounds inrange(-16, 24) ({ [5 x ptr] }, ptr @_ZTVN3gmx14AbstractOptionE, i32 0, i32 0, i32 2), ptr %5, align 8, !tbaa !13
  %6 = getelementptr inbounds nuw %"class.gmx::AbstractOption", ptr %5, i32 0, i32 1
  store i32 1, ptr %6, align 8, !tbaa !93
  %7 = getelementptr inbounds nuw %"class.gmx::AbstractOption", ptr %5, i32 0, i32 2
  store i32 1, ptr %7, align 4, !tbaa !92
  %8 = getelementptr inbounds nuw %"class.gmx::AbstractOption", ptr %5, i32 0, i32 3
  %9 = load ptr, ptr %4, align 8, !tbaa !100
  store ptr %9, ptr %8, align 8, !tbaa !408
  %10 = getelementptr inbounds nuw %"class.gmx::AbstractOption", ptr %5, i32 0, i32 4
  store ptr null, ptr %10, align 8, !tbaa !409
  %11 = getelementptr inbounds nuw %"class.gmx::AbstractOption", ptr %5, i32 0, i32 5
  call void @_ZN3gmx13FlagsTemplateINS_10OptionFlagEEC2Ev(ptr noundef nonnull align 8 dereferenceable(8) %11)
  %12 = getelementptr inbounds nuw %"class.gmx::AbstractOption", ptr %5, i32 0, i32 6
  store ptr null, ptr %12, align 8, !tbaa !410
  ret void
}

; Function Attrs: mustprogress uwtable
define void @_ZN3gmx19SelectionFileOptionC2EPKc(ptr noundef nonnull align 8 dereferenceable(48) %0, ptr noundef %1) unnamed_addr #1 align 2 personality ptr @__gxx_personality_v0 {
  %3 = alloca ptr, align 8
  %4 = alloca ptr, align 8
  %5 = alloca ptr, align 8
  %6 = alloca i32, align 4
  store ptr %0, ptr %3, align 8, !tbaa !72
  store ptr %1, ptr %4, align 8, !tbaa !100
  %7 = load ptr, ptr %3, align 8
  %8 = load ptr, ptr %4, align 8, !tbaa !100
  call void @_ZN3gmx14AbstractOptionC2EPKc(ptr noundef nonnull align 8 dereferenceable(48) %7, ptr noundef %8)
  store ptr getelementptr inbounds inrange(-16, 24) ({ [5 x ptr] }, ptr @_ZTVN3gmx19SelectionFileOptionE, i32 0, i32 0, i32 2), ptr %7, align 8, !tbaa !13
  invoke void @_ZN3gmx14AbstractOption14setDescriptionEPKc(ptr noundef nonnull align 8 dereferenceable(48) %7, ptr noundef @.str.34)
          to label %9 unwind label %10

9:                                                ; preds = %2
  ret void

10:                                               ; preds = %2
  %11 = landingpad { ptr, i32 }
          cleanup
  %12 = extractvalue { ptr, i32 } %11, 0
  store ptr %12, ptr %5, align 8
  %13 = extractvalue { ptr, i32 } %11, 1
  store i32 %13, ptr %6, align 4
  call void @_ZN3gmx14AbstractOptionD2Ev(ptr noundef nonnull align 8 dereferenceable(48) %7) #20
  br label %14

14:                                               ; preds = %10
  %15 = load ptr, ptr %5, align 8
  %16 = load i32, ptr %6, align 4
  %17 = insertvalue { ptr, i32 } poison, ptr %15, 0
  %18 = insertvalue { ptr, i32 } %17, i32 %16, 1
  resume { ptr, i32 } %18
}