; Function Attrs: mustprogress nofree norecurse nosync nounwind willreturn memory(argmem: write) uwtable
define void @_ZN3gmx19SelectionFileOptionC2EPKc(ptr noundef nonnull writeonly align 8 captures(none) dereferenceable(48) initializes((0, 48)) %0, ptr noundef %1) unnamed_addr #4 align 2 personality ptr @__gxx_personality_v0 {
  %3 = getelementptr inbounds nuw i8, ptr %0, i64 8
  store i32 1, ptr %3, align 8, !tbaa !203
  %4 = getelementptr inbounds nuw i8, ptr %0, i64 12
  store i32 1, ptr %4, align 4, !tbaa !204
  %5 = getelementptr inbounds nuw i8, ptr %0, i64 16
  store ptr %1, ptr %5, align 8, !tbaa !205
  %6 = getelementptr inbounds nuw i8, ptr %0, i64 24
  %7 = getelementptr inbounds nuw i8, ptr %0, i64 32
  tail call void @llvm.memset.p0.i64(ptr noundef nonnull align 8 dereferenceable(16) %7, i8 0, i64 16, i1 false)
  store ptr getelementptr inbounds nuw inrange(-16, 24) (i8, ptr @_ZTVN3gmx19SelectionFileOptionE, i64 16), ptr %0, align 8, !tbaa !12
  store ptr @.str.34, ptr %6, align 8, !tbaa !206
  ret void
}